; Function Attrs: nounwind uwtable
define hidden void @recff_ffi_new(ptr noundef %0, ptr noundef readonly captures(none) %1) local_unnamed_addr #0 {
  %3 = getelementptr inbounds nuw i8, ptr %0, i64 160
  %4 = load ptr, ptr %3, align 8, !tbaa !4
  %5 = load i32, ptr %4, align 4, !tbaa !27
  %6 = load ptr, ptr %1, align 8, !tbaa !28
  %7 = tail call fastcc i32 @argv2ctype(ptr noundef %0, i32 noundef %5, ptr noundef %6)
  tail call fastcc void @crec_alloc(ptr noundef %0, ptr noundef nonnull %1, i32 noundef %7)
  ret void
}